target datalayout = "e-m:e-p270:32:32-p271:32:32-p272:64:64-i64:64-i128:128-f80:128-n8:16:32:64-S128"
target triple = "x86_64-pc-linux-gnu"

%struct._zval_struct = type { %union._zend_value, %union.anon, %union.anon.2 }
%union._zend_value = type { i64 }
%union.anon = type { i32 }
%union.anon.2 = type { i32 }
%struct._zend_refcounted_h = type { i32, %union.anon.3 }
%union.anon.3 = type { i32 }
%struct._sapi_module_struct = type { ptr, ptr, ptr, ptr, ptr, ptr, ptr, ptr, ptr, ptr, ptr, ptr, ptr, ptr, ptr, ptr, ptr, ptr, ptr, ptr, ptr, ptr, ptr, ptr, i32, i32, ptr, ptr, ptr, ptr, ptr, ptr, i32, ptr, ptr, ptr }
%struct._zend_string = type { %struct._zend_refcounted_h, i64, i64, [1 x i8] }
%struct.__va_list_tag = type { i32, i32, ptr, ptr }
%struct._zend_hash_key = type { i64, ptr }

@sapi_module = external global %struct._sapi_module_struct, align 8
@.str.26 = private unnamed_addr constant [5 x i8] c"HTTP\00", align 1
@.str.102 = private unnamed_addr constant [6 x i8] c"%s_%s\00", align 1
@.str.103 = private unnamed_addr constant [13 x i8] c"CONTENT_TYPE\00", align 1
@.str.104 = private unnamed_addr constant [15 x i8] c"CONTENT_LENGTH\00", align 1

; Function Attrs: nounwind uwtable
define internal void @sapi_cli_server_register_variable(ptr noundef %0, ptr noundef %1, ptr noundef %2) #0 {
  %4 = alloca ptr, align 8
  %5 = alloca ptr, align 8
  %6 = alloca ptr, align 8
  %7 = alloca ptr, align 8
  %8 = alloca i64, align 8
  %9 = alloca i32, align 4
  store ptr %0, ptr %4, align 8, !tbaa !9
  store ptr %1, ptr %5, align 8, !tbaa !67
  store ptr %2, ptr %6, align 8, !tbaa !67
  call void @llvm.lifetime.start.p0(i64 8, ptr %7) #20
  %10 = load ptr, ptr %6, align 8, !tbaa !67
  store ptr %10, ptr %7, align 8, !tbaa !67
  call void @llvm.lifetime.start.p0(i64 8, ptr %8) #20
  %11 = load ptr, ptr %6, align 8, !tbaa !67
  %12 = icmp eq ptr null, %11
  br i1 %12, label %13, label %14

13:                                               ; preds = %3
  store i32 1, ptr %9, align 4
  br label %27

14:                                               ; preds = %3
  %15 = load ptr, ptr getelementptr inbounds nuw (%struct._sapi_module_struct, ptr @sapi_module, i32 0, i32 30), align 8, !tbaa !155
  %16 = load ptr, ptr %5, align 8, !tbaa !67
  %17 = load ptr, ptr %6, align 8, !tbaa !67
  %18 = call i64 @strlen(ptr noundef %17) #21
  %19 = call i32 %15(i32 noundef 5, ptr noundef %16, ptr noundef %7, i64 noundef %18, ptr noundef %8)
  %20 = icmp ne i32 %19, 0
  br i1 %20, label %21, label %26

21:                                               ; preds = %14
  %22 = load ptr, ptr %5, align 8, !tbaa !67
  %23 = load ptr, ptr %7, align 8, !tbaa !67
  %24 = load i64, ptr %8, align 8, !tbaa !68
  %25 = load ptr, ptr %4, align 8, !tbaa !9
  call void @php_register_variable_safe(ptr noundef %22, ptr noundef %23, i64 noundef %24, ptr noundef %25)
  br label %26

26:                                               ; preds = %21, %14
  store i32 0, ptr %9, align 4
  br label %27

27:                                               ; preds = %26, %13
  call void @llvm.lifetime.end.p0(i64 8, ptr %8) #20
  call void @llvm.lifetime.end.p0(i64 8, ptr %7) #20
  %28 = load i32, ptr %9, align 4
  switch i32 %28, label %30 [
    i32 0, label %29
    i32 1, label %29
  ]

29:                                               ; preds = %27, %27
  ret void

30:                                               ; preds = %27
  unreachable
}

; Function Attrs: nounwind uwtable
define internal i32 @sapi_cli_server_register_entry_cb(ptr noundef %0, i32 noundef %1, ptr noundef %2, ptr noundef %3) #0 {
  %5 = alloca ptr, align 8
  %6 = alloca i32, align 4
  %7 = alloca ptr, align 8
  %8 = alloca ptr, align 8
  %9 = alloca ptr, align 8
  %10 = alloca ptr, align 8
  %11 = alloca ptr, align 8
  %12 = alloca i32, align 4
  %13 = alloca i32, align 4
  %14 = alloca i32, align 4
  store ptr %0, ptr %5, align 8, !tbaa !9
  store i32 %1, ptr %6, align 4, !tbaa !117
  store ptr %2, ptr %7, align 8, !tbaa !156
  store ptr %3, ptr %8, align 8, !tbaa !158
  call void @llvm.lifetime.start.p0(i64 8, ptr %9) #20
  %15 = load ptr, ptr %7, align 8, !tbaa !156
  %16 = getelementptr inbounds nuw %struct.__va_list_tag, ptr %15, i32 0, i32 0
  %17 = load i32, ptr %16, align 8
  %18 = icmp ule i32 %17, 40
  br i1 %18, label %19, label %24

19:                                               ; preds = %4
  %20 = getelementptr inbounds nuw %struct.__va_list_tag, ptr %15, i32 0, i32 3
  %21 = load ptr, ptr %20, align 8
  %22 = getelementptr i8, ptr %21, i32 %17
  %23 = add i32 %17, 8
  store i32 %23, ptr %16, align 8
  br label %28

24:                                               ; preds = %4
  %25 = getelementptr inbounds nuw %struct.__va_list_tag, ptr %15, i32 0, i32 2
  %26 = load ptr, ptr %25, align 8
  %27 = getelementptr i8, ptr %26, i32 8
  store ptr %27, ptr %25, align 8
  br label %28

28:                                               ; preds = %24, %19
  %29 = phi ptr [ %22, %19 ], [ %26, %24 ]
  %30 = load ptr, ptr %29, align 8, !tbaa !9
  store ptr %30, ptr %9, align 8, !tbaa !9
  %31 = load ptr, ptr %8, align 8, !tbaa !158
  %32 = getelementptr inbounds nuw %struct._zend_hash_key, ptr %31, i32 0, i32 1
  %33 = load ptr, ptr %32, align 8, !tbaa !160
  %34 = icmp ne ptr %33, null
  br i1 %34, label %35, label %120

35:                                               ; preds = %28
  call void @llvm.lifetime.start.p0(i64 8, ptr %10) #20
  call void @llvm.lifetime.start.p0(i64 8, ptr %11) #20
  call void @llvm.lifetime.start.p0(i64 4, ptr %12) #20
  %36 = load ptr, ptr %8, align 8, !tbaa !158
  %37 = getelementptr inbounds nuw %struct._zend_hash_key, ptr %36, i32 0, i32 1
  %38 = load ptr, ptr %37, align 8, !tbaa !160
  %39 = getelementptr inbounds nuw %struct._zend_string, ptr %38, i32 0, i32 3
  %40 = getelementptr inbounds [1 x i8], ptr %39, i64 0, i64 0
  %41 = load ptr, ptr %8, align 8, !tbaa !158
  %42 = getelementptr inbounds nuw %struct._zend_hash_key, ptr %41, i32 0, i32 1
  %43 = load ptr, ptr %42, align 8, !tbaa !160
  %44 = getelementptr inbounds nuw %struct._zend_string, ptr %43, i32 0, i32 2
  %45 = load i64, ptr %44, align 8, !tbaa !91
  %46 = call noalias ptr @_estrndup(ptr noundef %40, i64 noundef %45)
  store ptr %46, ptr %11, align 8, !tbaa !67
  store i32 0, ptr %12, align 4, !tbaa !117
  br label %47

47:                                               ; preds = %89, %35
  %48 = load i32, ptr %12, align 4, !tbaa !117
  %49 = zext i32 %48 to i64
  %50 = load ptr, ptr %8, align 8, !tbaa !158
  %51 = getelementptr inbounds nuw %struct._zend_hash_key, ptr %50, i32 0, i32 1
  %52 = load ptr, ptr %51, align 8, !tbaa !160
  %53 = getelementptr inbounds nuw %struct._zend_string, ptr %52, i32 0, i32 2
  %54 = load i64, ptr %53, align 8, !tbaa !91
  %55 = icmp ult i64 %49, %54
  br i1 %55, label %56, label %92

56:                                               ; preds = %47
  %57 = load ptr, ptr %11, align 8, !tbaa !67
  %58 = load i32, ptr %12, align 4, !tbaa !117
  %59 = zext i32 %58 to i64
  %60 = getelementptr inbounds nuw i8, ptr %57, i64 %59
  %61 = load i8, ptr %60, align 1, !tbaa !11
  %62 = sext i8 %61 to i32
  %63 = icmp eq i32 %62, 45
  br i1 %63, label %64, label %69

64:                                               ; preds = %56
  %65 = load ptr, ptr %11, align 8, !tbaa !67
  %66 = load i32, ptr %12, align 4, !tbaa !117
  %67 = zext i32 %66 to i64
  %68 = getelementptr inbounds nuw i8, ptr %65, i64 %67
  store i8 95, ptr %68, align 1, !tbaa !11
  br label %88

69:                                               ; preds = %56
  call void @llvm.lifetime.start.p0(i64 4, ptr %13) #20
  %70 = call ptr @__ctype_toupper_loc() #23
  %71 = load ptr, ptr %70, align 8, !tbaa !128
  %72 = load ptr, ptr %11, align 8, !tbaa !67
  %73 = load i32, ptr %12, align 4, !tbaa !117
  %74 = zext i32 %73 to i64
  %75 = getelementptr inbounds nuw i8, ptr %72, i64 %74
  %76 = load i8, ptr %75, align 1, !tbaa !11
  %77 = sext i8 %76 to i32
  %78 = sext i32 %77 to i64
  %79 = getelementptr inbounds i32, ptr %71, i64 %78
  %80 = load i32, ptr %79, align 4, !tbaa !117
  store i32 %80, ptr %13, align 4, !tbaa !117
  %81 = load i32, ptr %13, align 4, !tbaa !117
  store i32 %81, ptr %14, align 4, !tbaa !117
  call void @llvm.lifetime.end.p0(i64 4, ptr %13) #20
  %82 = load i32, ptr %14, align 4, !tbaa !117
  %83 = trunc i32 %82 to i8
  %84 = load ptr, ptr %11, align 8, !tbaa !67
  %85 = load i32, ptr %12, align 4, !tbaa !117
  %86 = zext i32 %85 to i64
  %87 = getelementptr inbounds nuw i8, ptr %84, i64 %86
  store i8 %83, ptr %87, align 1, !tbaa !11
  br label %88

88:                                               ; preds = %69, %64
  br label %89

89:                                               ; preds = %88
  %90 = load i32, ptr %12, align 4, !tbaa !117
  %91 = add i32 %90, 1
  store i32 %91, ptr %12, align 4, !tbaa !117
  br label %47

92:                                               ; preds = %47
  %93 = load ptr, ptr %11, align 8, !tbaa !67
  %94 = call i64 (ptr, i64, ptr, ...) @zend_spprintf(ptr noundef %10, i64 noundef 0, ptr noundef @.str.102, ptr noundef @.str.26, ptr noundef %93)
  %95 = load ptr, ptr %11, align 8, !tbaa !67
  %96 = call i32 @strcmp(ptr noundef %95, ptr noundef @.str.103) #21
  %97 = icmp eq i32 %96, 0
  br i1 %97, label %102, label %98

98:                                               ; preds = %92
  %99 = load ptr, ptr %11, align 8, !tbaa !67
  %100 = call i32 @strcmp(ptr noundef %99, ptr noundef @.str.104) #21
  %101 = icmp eq i32 %100, 0
  br i1 %101, label %102, label %110

102:                                              ; preds = %98, %92
  %103 = load ptr, ptr %9, align 8, !tbaa !9
  %104 = load ptr, ptr %11, align 8, !tbaa !67
  %105 = load ptr, ptr %5, align 8, !tbaa !9
  %106 = getelementptr inbounds nuw %struct._zval_struct, ptr %105, i32 0, i32 0
  %107 = load ptr, ptr %106, align 8, !tbaa !11
  %108 = getelementptr inbounds nuw %struct._zend_string, ptr %107, i32 0, i32 3
  %109 = getelementptr inbounds [1 x i8], ptr %108, i64 0, i64 0
  call void @sapi_cli_server_register_variable(ptr noundef %103, ptr noundef %104, ptr noundef %109)
  br label %110

110:                                              ; preds = %102, %98
  %111 = load ptr, ptr %9, align 8, !tbaa !9
  %112 = load ptr, ptr %10, align 8, !tbaa !67
  %113 = load ptr, ptr %5, align 8, !tbaa !9
  %114 = getelementptr inbounds nuw %struct._zval_struct, ptr %113, i32 0, i32 0
  %115 = load ptr, ptr %114, align 8, !tbaa !11
  %116 = getelementptr inbounds nuw %struct._zend_string, ptr %115, i32 0, i32 3
  %117 = getelementptr inbounds [1 x i8], ptr %116, i64 0, i64 0
  call void @sapi_cli_server_register_variable(ptr noundef %111, ptr noundef %112, ptr noundef %117)
  %118 = load ptr, ptr %11, align 8, !tbaa !67
  call void @_efree(ptr noundef %118)
  %119 = load ptr, ptr %10, align 8, !tbaa !67
  call void @_efree(ptr noundef %119)
  call void @llvm.lifetime.end.p0(i64 4, ptr %12) #20
  call void @llvm.lifetime.end.p0(i64 8, ptr %11) #20
  call void @llvm.lifetime.end.p0(i64 8, ptr %10) #20
  br label %120

120:                                              ; preds = %110, %28
  call void @llvm.lifetime.end.p0(i64 8, ptr %9) #20
  ret i32 0
}