; Function Attrs: nounwind uwtable
define internal noundef i32 @sapi_cli_server_register_entry_cb(ptr noundef readonly captures(none) %0, i32 %1, ptr noundef captures(none) %2, ptr noundef readonly captures(none) %3) #0 {
  %5 = alloca ptr, align 8
  %6 = alloca i64, align 8
  %7 = alloca ptr, align 8
  %8 = alloca i64, align 8
  %9 = alloca ptr, align 8
  %10 = load i32, ptr %2, align 8
  %11 = icmp ult i32 %10, 41
  br i1 %11, label %12, label %18

12:                                               ; preds = %4
  %13 = getelementptr inbounds nuw i8, ptr %2, i64 16
  %14 = load ptr, ptr %13, align 8
  %15 = zext nneg i32 %10 to i64
  %16 = getelementptr i8, ptr %14, i64 %15
  %17 = add nuw nsw i32 %10, 8
  store i32 %17, ptr %2, align 8
  br label %22

18:                                               ; preds = %4
  %19 = getelementptr inbounds nuw i8, ptr %2, i64 8
  %20 = load ptr, ptr %19, align 8
  %21 = getelementptr i8, ptr %20, i64 8
  store ptr %21, ptr %19, align 8
  br label %22

22:                                               ; preds = %18, %12
  %23 = phi ptr [ %16, %12 ], [ %20, %18 ]
  %24 = load ptr, ptr %23, align 8, !tbaa !155
  %25 = getelementptr inbounds nuw i8, ptr %3, i64 8
  %26 = load ptr, ptr %25, align 8, !tbaa !156
  %.not = icmp eq ptr %26, null
  br i1 %.not, label %76, label %27

27:                                               ; preds = %22
  call void @llvm.lifetime.start.p0(i64 8, ptr nonnull %9) #29
  %28 = getelementptr inbounds nuw i8, ptr %26, i64 24
  %29 = getelementptr inbounds nuw i8, ptr %26, i64 16
  %30 = load i64, ptr %29, align 8, !tbaa !86
  %31 = tail call noalias ptr @_estrndup(ptr noundef nonnull %28, i64 noundef %30) #29
  %32 = load ptr, ptr %25, align 8, !tbaa !156
  %33 = getelementptr inbounds nuw i8, ptr %32, i64 16
  %34 = load i64, ptr %33, align 8, !tbaa !86
  %.not31 = icmp eq i64 %34, 0
  br i1 %.not31, label %._crit_edge, label %.lr.ph

.lr.ph:                                           ; preds = %27, %46
  %35 = phi i64 [ %48, %46 ], [ 0, %27 ]
  %.030 = phi i32 [ %47, %46 ], [ 0, %27 ]
  %36 = getelementptr inbounds nuw i8, ptr %31, i64 %35
  %37 = load i8, ptr %36, align 1, !tbaa !4
  %38 = icmp eq i8 %37, 45
  br i1 %38, label %46, label %39

39:                                               ; preds = %.lr.ph
  %40 = tail call ptr @__ctype_toupper_loc() #32
  %41 = load ptr, ptr %40, align 8, !tbaa !134
  %42 = sext i8 %37 to i64
  %43 = getelementptr inbounds i32, ptr %41, i64 %42
  %44 = load i32, ptr %43, align 4, !tbaa !74
  %45 = trunc i32 %44 to i8
  br label %46

46:                                               ; preds = %.lr.ph, %39
  %storemerge = phi i8 [ %45, %39 ], [ 95, %.lr.ph ]
  store i8 %storemerge, ptr %36, align 1, !tbaa !4
  %47 = add i32 %.030, 1
  %48 = zext i32 %47 to i64
  %49 = icmp ugt i64 %34, %48
  br i1 %49, label %.lr.ph, label %._crit_edge

._crit_edge:                                      ; preds = %46, %27
  %50 = call i64 (ptr, i64, ptr, ...) @zend_spprintf(ptr noundef nonnull %9, i64 noundef 0, ptr noundef nonnull @.str.102, ptr noundef nonnull @.str.26, ptr noundef %31) #29
  %51 = call i32 @strcmp(ptr noundef nonnull dereferenceable(1) %31, ptr noundef nonnull dereferenceable(13) @.str.103) #30
  %52 = icmp eq i32 %51, 0
  br i1 %52, label %56, label %53

53:                                               ; preds = %._crit_edge
  %54 = call i32 @strcmp(ptr noundef nonnull dereferenceable(1) %31, ptr noundef nonnull dereferenceable(15) @.str.104) #30
  %55 = icmp eq i32 %54, 0
  br i1 %55, label %56, label %65

56:                                               ; preds = %53, %._crit_edge
  %57 = load ptr, ptr %0, align 8, !tbaa !4
  %58 = getelementptr inbounds nuw i8, ptr %57, i64 24
  call void @llvm.lifetime.start.p0(i64 8, ptr nonnull %7) #29
  store ptr %58, ptr %7, align 8, !tbaa !117
  call void @llvm.lifetime.start.p0(i64 8, ptr nonnull %8) #29
  %59 = load ptr, ptr getelementptr inbounds nuw (i8, ptr @sapi_module, i64 232), align 8, !tbaa !118
  %60 = call i64 @strlen(ptr noundef nonnull dereferenceable(1) %58) #30
  %61 = call i32 %59(i32 noundef 5, ptr noundef nonnull %31, ptr noundef nonnull %7, i64 noundef %60, ptr noundef nonnull %8) #29
  %.not.i = icmp eq i32 %61, 0
  br i1 %.not.i, label %sapi_cli_server_register_variable.exit, label %62

62:                                               ; preds = %56
  %63 = load ptr, ptr %7, align 8, !tbaa !117
  %64 = load i64, ptr %8, align 8, !tbaa !121
  call void @php_register_variable_safe(ptr noundef nonnull %31, ptr noundef %63, i64 noundef %64, ptr noundef %24) #29
  br label %sapi_cli_server_register_variable.exit

sapi_cli_server_register_variable.exit:           ; preds = %56, %62
  call void @llvm.lifetime.end.p0(i64 8, ptr nonnull %8) #29
  call void @llvm.lifetime.end.p0(i64 8, ptr nonnull %7) #29
  br label %65

65:                                               ; preds = %sapi_cli_server_register_variable.exit, %53
  %66 = load ptr, ptr %9, align 8, !tbaa !117
  %67 = load ptr, ptr %0, align 8, !tbaa !4
  %68 = getelementptr inbounds nuw i8, ptr %67, i64 24
  call void @llvm.lifetime.start.p0(i64 8, ptr nonnull %5) #29
  store ptr %68, ptr %5, align 8, !tbaa !117
  call void @llvm.lifetime.start.p0(i64 8, ptr nonnull %6) #29
  %69 = load ptr, ptr getelementptr inbounds nuw (i8, ptr @sapi_module, i64 232), align 8, !tbaa !118
  %70 = call i64 @strlen(ptr noundef nonnull dereferenceable(1) %68) #30
  %71 = call i32 %69(i32 noundef 5, ptr noundef %66, ptr noundef nonnull %5, i64 noundef %70, ptr noundef nonnull %6) #29
  %.not.i28 = icmp eq i32 %71, 0
  br i1 %.not.i28, label %sapi_cli_server_register_variable.exit29, label %72

72:                                               ; preds = %65
  %73 = load ptr, ptr %5, align 8, !tbaa !117
  %74 = load i64, ptr %6, align 8, !tbaa !121
  call void @php_register_variable_safe(ptr noundef %66, ptr noundef %73, i64 noundef %74, ptr noundef %24) #29
  br label %sapi_cli_server_register_variable.exit29

sapi_cli_server_register_variable.exit29:         ; preds = %65, %72
  call void @llvm.lifetime.end.p0(i64 8, ptr nonnull %6) #29
  call void @llvm.lifetime.end.p0(i64 8, ptr nonnull %5) #29
  call void @_efree(ptr noundef nonnull %31) #29
  %75 = load ptr, ptr %9, align 8, !tbaa !117
  call void @_efree(ptr noundef %75) #29
  call void @llvm.lifetime.end.p0(i64 8, ptr nonnull %9) #29
  br label %76

76:                                               ; preds = %sapi_cli_server_register_variable.exit29, %22
  ret i32 0
}